; Function Attrs: mustprogress uwtable
define hidden void @_ZN4cvc58internal6theory5arith6linear18ConstraintDatabase18pushConstraintRuleERKNS3_14ConstraintRuleE(ptr nocapture noundef nonnull readonly align 8 dereferenceable(488) %this, ptr noundef nonnull align 8 dereferenceable(32) %crp) local_unnamed_addr #4 align 2 {
entry:
  %0 = load ptr, ptr %crp, align 8
  %d_watches = getelementptr inbounds i8, ptr %this, i64 272
  %1 = load ptr, ptr %d_watches, align 8
  %d_list.i = getelementptr inbounds i8, ptr %1, i64 40
  %_M_finish.i.i = getelementptr inbounds i8, ptr %1, i64 48
  %2 = load ptr, ptr %_M_finish.i.i, align 8
  %3 = load ptr, ptr %d_list.i, align 8
  %sub.ptr.lhs.cast.i.i = ptrtoint ptr %2 to i64
  %sub.ptr.rhs.cast.i.i = ptrtoint ptr %3 to i64
  %sub.ptr.sub.i.i = sub i64 %sub.ptr.lhs.cast.i.i, %sub.ptr.rhs.cast.i.i
  %sub.ptr.div.i.i = ashr exact i64 %sub.ptr.sub.i.i, 5
  %d_crid = getelementptr inbounds i8, ptr %0, i64 120
  store i64 %sub.ptr.div.i.i, ptr %d_crid, align 8
  %4 = load ptr, ptr %d_watches, align 8
  tail call void @_ZN4cvc57context6CDListINS_8internal6theory5arith6linear14ConstraintRuleENS5_10Constraint21ConstraintRuleCleanupESaIS6_EE9push_backERKS6_(ptr noundef nonnull align 8 dereferenceable(74) %4, ptr noundef nonnull align 8 dereferenceable(32) %crp)
  ret void
}